; Function Attrs: mustprogress nounwind uwtable
define internal fastcc void @_ZN4llvm26ImutAVLTreeInOrderIteratorINS_16ImutKeyValueInfoISt4pairIPKN5clang4ento9MemRegionEPKNS3_14IdentifierInfoEEN12_GLOBAL__N_122ConstrainedPropertyValEEEEC2EPKNS_11ImutAVLTreeISE_EE(ptr noundef nonnull align 8 dereferenceable(176) %0, ptr noundef %1) unnamed_addr #0 align 2 {
  %3 = getelementptr inbounds nuw i8, ptr %0, i64 16
  tail call void @_ZN4llvm15SmallVectorBaseIjEC2EPvm(ptr noundef nonnull align 8 dereferenceable(176) %0, ptr noundef nonnull %3, i64 noundef 20) #22
  %.not.i = icmp eq ptr %1, null
  br i1 %.not.i, label %_ZN4llvm26ImutAVLTreeGenericIteratorINS_16ImutKeyValueInfoISt4pairIPKN5clang4ento9MemRegionEPKNS3_14IdentifierInfoEEN12_GLOBAL__N_122ConstrainedPropertyValEEEEC2EPKNS_11ImutAVLTreeISE_EE.exit.thread, label %4

4:                                                ; preds = %2
  %5 = ptrtoint ptr %1 to i64
  %6 = tail call noundef i64 @_ZNK4llvm15SmallVectorBaseIjE4sizeEv(ptr noundef nonnull align 8 dereferenceable(176) %0) #22
  %7 = add i64 %6, 1
  %8 = tail call noundef i64 @_ZNK4llvm15SmallVectorBaseIjE8capacityEv(ptr noundef nonnull align 8 dereferenceable(176) %0) #22
  %.not.i.i.i.i = icmp ugt i64 %7, %8
  br i1 %.not.i.i.i.i, label %9, label %10

9:                                                ; preds = %4
  tail call void @_ZN4llvm15SmallVectorBaseIjE8grow_podEPvmm(ptr noundef nonnull align 8 dereferenceable(176) %0, ptr noundef nonnull %3, i64 noundef %7, i64 noundef 8) #22
  br label %10

10:                                               ; preds = %9, %4
  %11 = load ptr, ptr %0, align 8
  %12 = tail call noundef i64 @_ZNK4llvm15SmallVectorBaseIjE4sizeEv(ptr noundef nonnull align 8 dereferenceable(176) %0) #22
  %13 = getelementptr inbounds i64, ptr %11, i64 %12
  store i64 %5, ptr %13, align 1
  %14 = tail call noundef i64 @_ZNK4llvm15SmallVectorBaseIjE4sizeEv(ptr noundef nonnull align 8 dereferenceable(176) %0) #22
  %15 = add i64 %14, 1
  tail call void @_ZN4llvm15SmallVectorBaseIjE8set_sizeEm(ptr noundef nonnull align 8 dereferenceable(176) %0, i64 noundef %15) #22
  %16 = tail call fastcc noundef nonnull align 8 dereferenceable(176) ptr @_ZN4llvm26ImutAVLTreeInOrderIteratorINS_16ImutKeyValueInfoISt4pairIPKN5clang4ento9MemRegionEPKNS3_14IdentifierInfoEEN12_GLOBAL__N_122ConstrainedPropertyValEEEEppEv(ptr noundef nonnull align 8 dereferenceable(176) %0)
  br label %_ZN4llvm26ImutAVLTreeGenericIteratorINS_16ImutKeyValueInfoISt4pairIPKN5clang4ento9MemRegionEPKNS3_14IdentifierInfoEEN12_GLOBAL__N_122ConstrainedPropertyValEEEEC2EPKNS_11ImutAVLTreeISE_EE.exit.thread

_ZN4llvm26ImutAVLTreeGenericIteratorINS_16ImutKeyValueInfoISt4pairIPKN5clang4ento9MemRegionEPKNS3_14IdentifierInfoEEN12_GLOBAL__N_122ConstrainedPropertyValEEEEC2EPKNS_11ImutAVLTreeISE_EE.exit.thread: ; preds = %2, %10
  ret void
}